; Function Attrs: nounwind uwtable
define internal fastcc void @msmpeg4v2_encode_motion(ptr noundef captures(none) %0, i32 noundef %1) unnamed_addr #0 {
  %3 = icmp eq i32 %1, 0
  br i1 %3, label %4, label %32

4:                                                ; preds = %2
  %5 = getelementptr inbounds nuw i8, ptr %0, i64 4808
  %6 = load i32, ptr %5, align 8, !tbaa !4
  %7 = getelementptr inbounds nuw i8, ptr %0, i64 4812
  %8 = load i32, ptr %7, align 4, !tbaa !11
  %9 = icmp sgt i32 %8, 1
  br i1 %9, label %10, label %13

10:                                               ; preds = %4
  %11 = shl i32 %6, 1
  %12 = or disjoint i32 %11, 1
  br label %put_bits.exit

13:                                               ; preds = %4
  %14 = getelementptr inbounds nuw i8, ptr %0, i64 4832
  %15 = load ptr, ptr %14, align 8, !tbaa !12
  %16 = getelementptr inbounds nuw i8, ptr %0, i64 4824
  %17 = load ptr, ptr %16, align 8, !tbaa !13
  %18 = ptrtoint ptr %15 to i64
  %19 = ptrtoint ptr %17 to i64
  %20 = sub i64 %18, %19
  %21 = icmp ugt i64 %20, 3
  br i1 %21, label %22, label %30

22:                                               ; preds = %13
  %23 = shl i32 %6, %8
  %24 = sub nsw i32 1, %8
  %25 = lshr i32 1, %24
  %26 = or i32 %25, %23
  %27 = tail call i32 @llvm.bswap.i32(i32 %26)
  store i32 %27, ptr %17, align 1, !tbaa !14
  %28 = load ptr, ptr %16, align 8, !tbaa !13
  %29 = getelementptr inbounds nuw i8, ptr %28, i64 4
  store ptr %29, ptr %16, align 8, !tbaa !13
  br label %put_bits.exit

30:                                               ; preds = %13
  tail call void (ptr, i32, ptr, ...) @av_log(ptr noundef null, i32 noundef 16, ptr noundef nonnull @.str.11) #9
  br label %put_bits.exit

put_bits.exit:                                    ; preds = %22, %30, %10
  %.sink = phi i32 [ -1, %10 ], [ 31, %30 ], [ 31, %22 ]
  %.026.i.i = phi i32 [ %12, %10 ], [ 1, %30 ], [ 1, %22 ]
  %31 = add nsw i32 %8, %.sink
  store i32 %.026.i.i, ptr %5, align 8, !tbaa !4
  store i32 %31, ptr %7, align 4, !tbaa !11
  br label %109

32:                                               ; preds = %2
  %33 = getelementptr inbounds nuw i8, ptr %0, i64 6304
  %34 = load i32, ptr %33, align 8, !tbaa !133
  %35 = add nsw i32 %34, -1
  %36 = icmp slt i32 %1, -63
  %37 = add nsw i32 %1, 64
  %38 = icmp sgt i32 %1, 63
  %39 = add nsw i32 %1, -64
  %spec.select = select i1 %38, i32 %39, i32 %1
  %.0 = select i1 %36, i32 %37, i32 %spec.select
  %.1 = tail call i32 @llvm.abs.i32(i32 %.0, i1 true)
  %40 = add nsw i32 %.1, -1
  %41 = ashr i32 %40, %35
  %42 = add nsw i32 %41, 1
  %43 = getelementptr inbounds nuw i8, ptr %0, i64 4808
  %44 = zext nneg i32 %42 to i64
  %45 = getelementptr inbounds nuw [33 x [2 x i8]], ptr @ff_mvtab, i64 0, i64 %44
  %46 = getelementptr inbounds nuw i8, ptr %45, i64 1
  %47 = load i8, ptr %46, align 1, !tbaa !14
  %48 = zext i8 %47 to i32
  %49 = add nuw nsw i32 %48, 1
  %50 = load i8, ptr %45, align 2, !tbaa !14
  %51 = zext i8 %50 to i32
  %52 = tail call i32 @llvm.fshl.i32(i32 %51, i32 %.0, i32 1)
  %53 = load i32, ptr %43, align 8, !tbaa !4
  %54 = getelementptr inbounds nuw i8, ptr %0, i64 4812
  %55 = load i32, ptr %54, align 4, !tbaa !11
  %56 = icmp slt i32 %49, %55
  br i1 %56, label %57, label %61

57:                                               ; preds = %32
  %58 = shl i32 %53, %49
  %59 = or i32 %58, %52
  %60 = sub nsw i32 %55, %49
  br label %put_bits.exit28

61:                                               ; preds = %32
  %62 = getelementptr inbounds nuw i8, ptr %0, i64 4832
  %63 = load ptr, ptr %62, align 8, !tbaa !12
  %64 = getelementptr inbounds nuw i8, ptr %0, i64 4824
  %65 = load ptr, ptr %64, align 8, !tbaa !13
  %66 = ptrtoint ptr %63 to i64
  %67 = ptrtoint ptr %65 to i64
  %68 = sub i64 %66, %67
  %69 = icmp ugt i64 %68, 3
  br i1 %69, label %70, label %78

70:                                               ; preds = %61
  %71 = shl i32 %53, %55
  %72 = sub nsw i32 %49, %55
  %73 = lshr i32 %52, %72
  %74 = or i32 %73, %71
  %75 = tail call i32 @llvm.bswap.i32(i32 %74)
  store i32 %75, ptr %65, align 1, !tbaa !14
  %76 = load ptr, ptr %64, align 8, !tbaa !13
  %77 = getelementptr inbounds nuw i8, ptr %76, i64 4
  store ptr %77, ptr %64, align 8, !tbaa !13
  br label %79

78:                                               ; preds = %61
  tail call void (ptr, i32, ptr, ...) @av_log(ptr noundef null, i32 noundef 16, ptr noundef nonnull @.str.11) #9
  br label %79

79:                                               ; preds = %78, %70
  %reass.sub = sub i32 %55, %48
  %80 = add i32 %reass.sub, 31
  br label %put_bits.exit28

put_bits.exit28:                                  ; preds = %57, %79
  %.026.i.i26 = phi i32 [ %59, %57 ], [ %52, %79 ]
  %.0.i.i27 = phi i32 [ %60, %57 ], [ %80, %79 ]
  store i32 %.026.i.i26, ptr %43, align 8, !tbaa !4
  store i32 %.0.i.i27, ptr %54, align 4, !tbaa !11
  %81 = icmp sgt i32 %34, 1
  br i1 %81, label %82, label %109

82:                                               ; preds = %put_bits.exit28
  %notmask = shl nsw i32 -1, %35
  %83 = xor i32 %notmask, -1
  %84 = and i32 %40, %83
  %.not = icmp sgt i32 %34, %.0.i.i27
  br i1 %.not, label %89, label %85

85:                                               ; preds = %82
  %86 = shl i32 %.026.i.i26, %35
  %87 = or i32 %86, %84
  %88 = sub nsw i32 %.0.i.i27, %35
  br label %put_bits.exit32

89:                                               ; preds = %82
  %90 = getelementptr inbounds nuw i8, ptr %0, i64 4832
  %91 = load ptr, ptr %90, align 8, !tbaa !12
  %92 = getelementptr inbounds nuw i8, ptr %0, i64 4824
  %93 = load ptr, ptr %92, align 8, !tbaa !13
  %94 = ptrtoint ptr %91 to i64
  %95 = ptrtoint ptr %93 to i64
  %96 = sub i64 %94, %95
  %97 = icmp ugt i64 %96, 3
  br i1 %97, label %98, label %106

98:                                               ; preds = %89
  %99 = shl i32 %.026.i.i26, %.0.i.i27
  %100 = sub nsw i32 %35, %.0.i.i27
  %101 = lshr i32 %84, %100
  %102 = or i32 %101, %99
  %103 = tail call i32 @llvm.bswap.i32(i32 %102)
  store i32 %103, ptr %93, align 1, !tbaa !14
  %104 = load ptr, ptr %92, align 8, !tbaa !13
  %105 = getelementptr inbounds nuw i8, ptr %104, i64 4
  store ptr %105, ptr %92, align 8, !tbaa !13
  br label %107

106:                                              ; preds = %89
  tail call void (ptr, i32, ptr, ...) @av_log(ptr noundef null, i32 noundef 16, ptr noundef nonnull @.str.11) #9
  br label %107

107:                                              ; preds = %106, %98
  %reass.sub34 = sub i32 %.0.i.i27, %34
  %108 = add i32 %reass.sub34, 33
  br label %put_bits.exit32

put_bits.exit32:                                  ; preds = %85, %107
  %.026.i.i30 = phi i32 [ %87, %85 ], [ %84, %107 ]
  %.0.i.i31 = phi i32 [ %88, %85 ], [ %108, %107 ]
  store i32 %.026.i.i30, ptr %43, align 8, !tbaa !4
  store i32 %.0.i.i31, ptr %54, align 4, !tbaa !11
  br label %109

109:                                              ; preds = %put_bits.exit28, %put_bits.exit32, %put_bits.exit
  ret void
}